target datalayout = "e-m:e-p270:32:32-p271:32:32-p272:64:64-i64:64-i128:128-f80:128-n8:16:32:64-S128"
target triple = "x86_64-unknown-linux-gnu"

%"class.std::__cxx11::basic_string" = type { %"struct.std::__cxx11::basic_string<char>::_Alloc_hider", i64, %union.anon.13 }
%"struct.std::__cxx11::basic_string<char>::_Alloc_hider" = type { ptr }
%union.anon.13 = type { i64, [8 x i8] }

@_ZZN4pbrt13MLTIntegrator6RenderEvE13threadSampler = internal thread_local global ptr null, align 8
@_ZZN4pbrt13MLTIntegrator6RenderEvE11threadDepth = internal thread_local global i32 0, align 4
@.str.204 = private unnamed_addr constant [50 x i8] c"Rendering failed. Debug with --debugstart %d,%s\22\0A\00", align 1

; Function Attrs: mustprogress uwtable
define linkonce_odr dso_local void @_ZN4pbrt12StringPrintfIJRiNSt7__cxx1112basic_stringIcSt11char_traitsIcESaIcEEEEEES7_PKcDpOT_(ptr noalias sret(%"class.std::__cxx11::basic_string") align 8 %agg.result, ptr noundef %fmt, ptr noundef nonnull align 4 dereferenceable(4) %args, ptr noundef nonnull align 8 dereferenceable(32) %args1) #1 comdat personality ptr @__gxx_personality_v0 {
entry:
  %result.ptr = alloca ptr, align 8
  %fmt.addr = alloca ptr, align 8
  %args.addr = alloca ptr, align 8
  %args.addr2 = alloca ptr, align 8
  %nrvo = alloca i1, align 1
  %exn.slot = alloca ptr, align 8
  %ehselector.slot = alloca i32, align 4
  store ptr %agg.result, ptr %result.ptr, align 8
  store ptr %fmt, ptr %fmt.addr, align 8
  store ptr %args, ptr %args.addr, align 8
  store ptr %args1, ptr %args.addr2, align 8
  store i1 false, ptr %nrvo, align 1
  call void @_ZNSt7__cxx1112basic_stringIcSt11char_traitsIcESaIcEEC1Ev(ptr noundef nonnull align 8 dereferenceable(32) %agg.result) #14
  %0 = load ptr, ptr %fmt.addr, align 8
  %1 = load ptr, ptr %args.addr, align 8
  %2 = load ptr, ptr %args.addr2, align 8
  invoke void @_ZN4pbrt6detail21stringPrintfRecursiveIRiJNSt7__cxx1112basic_stringIcSt11char_traitsIcESaIcEEEEEEvPS8_PKcOT_DpOT0_(ptr noundef %agg.result, ptr noundef %0, ptr noundef nonnull align 4 dereferenceable(4) %1, ptr noundef nonnull align 8 dereferenceable(32) %2)
          to label %invoke.cont unwind label %lpad

invoke.cont:                                      ; preds = %entry
  store i1 true, ptr %nrvo, align 1
  %nrvo.val = load i1, ptr %nrvo, align 1
  br i1 %nrvo.val, label %nrvo.skipdtor, label %nrvo.unused

lpad:                                             ; preds = %entry
  %3 = landingpad { ptr, i32 }
          cleanup
  %4 = extractvalue { ptr, i32 } %3, 0
  store ptr %4, ptr %exn.slot, align 8
  %5 = extractvalue { ptr, i32 } %3, 1
  store i32 %5, ptr %ehselector.slot, align 4
  call void @_ZNSt7__cxx1112basic_stringIcSt11char_traitsIcESaIcEED1Ev(ptr noundef nonnull align 8 dereferenceable(32) %agg.result) #14
  br label %eh.resume

nrvo.unused:                                      ; preds = %invoke.cont
  call void @_ZNSt7__cxx1112basic_stringIcSt11char_traitsIcESaIcEED1Ev(ptr noundef nonnull align 8 dereferenceable(32) %agg.result) #14
  br label %nrvo.skipdtor

nrvo.skipdtor:                                    ; preds = %nrvo.unused, %invoke.cont
  ret void

eh.resume:                                        ; preds = %lpad
  %exn = load ptr, ptr %exn.slot, align 8
  %sel = load i32, ptr %ehselector.slot, align 4
  %lpad.val = insertvalue { ptr, i32 } poison, ptr %exn, 0
  %lpad.val3 = insertvalue { ptr, i32 } %lpad.val, i32 %sel, 1
  resume { ptr, i32 } %lpad.val3
}

; Function Attrs: mustprogress uwtable
define internal void @"_ZZN4pbrt13MLTIntegrator6RenderEvENK3$_0clB5cxx11Ev"(ptr noalias sret(%"class.std::__cxx11::basic_string") align 8 %agg.result, ptr noundef nonnull align 1 dereferenceable(1) %this) #1 align 2 personality ptr @__gxx_personality_v0 {
entry:
  %result.ptr = alloca ptr, align 8
  %this.addr = alloca ptr, align 8
  %ref.tmp = alloca %"class.std::__cxx11::basic_string", align 8
  %exn.slot = alloca ptr, align 8
  %ehselector.slot = alloca i32, align 4
  store ptr %agg.result, ptr %result.ptr, align 8
  store ptr %this, ptr %this.addr, align 8
  %0 = call align 4 ptr @llvm.threadlocal.address.p0(ptr align 4 @_ZZN4pbrt13MLTIntegrator6RenderEvE11threadDepth)
  %1 = call align 8 ptr @llvm.threadlocal.address.p0(ptr align 8 @_ZZN4pbrt13MLTIntegrator6RenderEvE13threadSampler)
  %2 = load ptr, ptr %1, align 8
  call void @_ZNK4pbrt10MLTSampler9DumpStateB5cxx11Ev(ptr sret(%"class.std::__cxx11::basic_string") align 8 %ref.tmp, ptr noundef nonnull align 8 dereferenceable(104) %2)
  invoke void @_ZN4pbrt12StringPrintfIJRiNSt7__cxx1112basic_stringIcSt11char_traitsIcESaIcEEEEEES7_PKcDpOT_(ptr sret(%"class.std::__cxx11::basic_string") align 8 %agg.result, ptr noundef @.str.204, ptr noundef nonnull align 4 dereferenceable(4) %0, ptr noundef nonnull align 8 dereferenceable(32) %ref.tmp)
          to label %invoke.cont unwind label %lpad

invoke.cont:                                      ; preds = %entry
  call void @_ZNSt7__cxx1112basic_stringIcSt11char_traitsIcESaIcEED1Ev(ptr noundef nonnull align 8 dereferenceable(32) %ref.tmp) #14
  ret void

lpad:                                             ; preds = %entry
  %3 = landingpad { ptr, i32 }
          cleanup
  %4 = extractvalue { ptr, i32 } %3, 0
  store ptr %4, ptr %exn.slot, align 8
  %5 = extractvalue { ptr, i32 } %3, 1
  store i32 %5, ptr %ehselector.slot, align 4
  call void @_ZNSt7__cxx1112basic_stringIcSt11char_traitsIcESaIcEED1Ev(ptr noundef nonnull align 8 dereferenceable(32) %ref.tmp) #14
  br label %eh.resume

eh.resume:                                        ; preds = %lpad
  %exn = load ptr, ptr %exn.slot, align 8
  %sel = load i32, ptr %ehselector.slot, align 4
  %lpad.val = insertvalue { ptr, i32 } poison, ptr %exn, 0
  %lpad.val2 = insertvalue { ptr, i32 } %lpad.val, i32 %sel, 1
  resume { ptr, i32 } %lpad.val2
}

; Function Attrs: mustprogress nounwind uwtable
define linkonce_odr dso_local noundef ptr @_ZNKSt9_Any_data9_M_accessEv(ptr noundef nonnull align 8 dereferenceable(16) %this) #2 comdat align 2 {
entry:
  %this.addr = alloca ptr, align 8
  store ptr %this, ptr %this.addr, align 8
  %this1 = load ptr, ptr %this.addr, align 8
  %arrayidx = getelementptr inbounds [16 x i8], ptr %this1, i64 0, i64 0
  ret ptr %arrayidx
}

; Function Attrs: mustprogress uwtable
define internal void @"_ZSt13__invoke_implINSt7__cxx1112basic_stringIcSt11char_traitsIcESaIcEEERZN4pbrt13MLTIntegrator6RenderEvE3$_0JEET_St14__invoke_otherOT0_DpOT1_"(ptr noalias sret(%"class.std::__cxx11::basic_string") align 8 %agg.result, ptr noundef nonnull align 1 dereferenceable(1) %__f) #1 {
entry:
  %result.ptr = alloca ptr, align 8
  %__f.addr = alloca ptr, align 8
  store ptr %agg.result, ptr %result.ptr, align 8
  store ptr %__f, ptr %__f.addr, align 8
  %0 = load ptr, ptr %__f.addr, align 8
  call void @"_ZZN4pbrt13MLTIntegrator6RenderEvENK3$_0clB5cxx11Ev"(ptr sret(%"class.std::__cxx11::basic_string") align 8 %agg.result, ptr noundef nonnull align 1 dereferenceable(1) %0)
  ret void
}

; Function Attrs: mustprogress nounwind uwtable
define internal noundef nonnull align 1 dereferenceable(1) ptr @"_ZNKSt9_Any_data9_M_accessIZN4pbrt13MLTIntegrator6RenderEvE3$_0EERKT_v"(ptr noundef nonnull align 8 dereferenceable(16) %this) #2 align 2 {
entry:
  %this.addr = alloca ptr, align 8
  store ptr %this, ptr %this.addr, align 8
  %this1 = load ptr, ptr %this.addr, align 8
  %call = call noundef ptr @_ZNKSt9_Any_data9_M_accessEv(ptr noundef nonnull align 8 dereferenceable(16) %this1) #14
  ret ptr %call
}

; Function Attrs: mustprogress uwtable
define internal void @"_ZSt10__invoke_rINSt7__cxx1112basic_stringIcSt11char_traitsIcESaIcEEERZN4pbrt13MLTIntegrator6RenderEvE3$_0JEENSt9enable_ifIX16is_invocable_r_vIT_T0_DpT1_EESB_E4typeEOSC_DpOSD_"(ptr noalias sret(%"class.std::__cxx11::basic_string") align 8 %agg.result, ptr noundef nonnull align 1 dereferenceable(1) %__fn) #1 {
entry:
  %result.ptr = alloca ptr, align 8
  %__fn.addr = alloca ptr, align 8
  store ptr %agg.result, ptr %result.ptr, align 8
  store ptr %__fn, ptr %__fn.addr, align 8
  %0 = load ptr, ptr %__fn.addr, align 8
  call void @"_ZSt13__invoke_implINSt7__cxx1112basic_stringIcSt11char_traitsIcESaIcEEERZN4pbrt13MLTIntegrator6RenderEvE3$_0JEET_St14__invoke_otherOT0_DpOT1_"(ptr sret(%"class.std::__cxx11::basic_string") align 8 %agg.result, ptr noundef nonnull align 1 dereferenceable(1) %0)
  ret void
}

; Function Attrs: mustprogress nounwind uwtable
define internal noundef ptr @"_ZNSt14_Function_base13_Base_managerIZN4pbrt13MLTIntegrator6RenderEvE3$_0E14_M_get_pointerERKSt9_Any_data"(ptr noundef nonnull align 8 dereferenceable(16) %__source) #2 align 2 {
entry:
  %__source.addr = alloca ptr, align 8
  %__f = alloca ptr, align 8
  store ptr %__source, ptr %__source.addr, align 8
  %0 = load ptr, ptr %__source.addr, align 8
  %call = call noundef nonnull align 1 dereferenceable(1) ptr @"_ZNKSt9_Any_data9_M_accessIZN4pbrt13MLTIntegrator6RenderEvE3$_0EERKT_v"(ptr noundef nonnull align 8 dereferenceable(16) %0) #14
  store ptr %call, ptr %__f, align 8
  %1 = load ptr, ptr %__f, align 8
  ret ptr %1
}

; Function Attrs: mustprogress uwtable
define internal void @"_ZNSt17_Function_handlerIFNSt7__cxx1112basic_stringIcSt11char_traitsIcESaIcEEEvEZN4pbrt13MLTIntegrator6RenderEvE3$_0E9_M_invokeERKSt9_Any_data"(ptr noalias sret(%"class.std::__cxx11::basic_string") align 8 %agg.result, ptr noundef nonnull align 8 dereferenceable(16) %__functor) #1 align 2 {
entry:
  %result.ptr = alloca ptr, align 8
  %__functor.addr = alloca ptr, align 8
  store ptr %agg.result, ptr %result.ptr, align 8
  store ptr %__functor, ptr %__functor.addr, align 8
  %0 = load ptr, ptr %__functor.addr, align 8
  %call = call noundef ptr @"_ZNSt14_Function_base13_Base_managerIZN4pbrt13MLTIntegrator6RenderEvE3$_0E14_M_get_pointerERKSt9_Any_data"(ptr noundef nonnull align 8 dereferenceable(16) %0) #14
  call void @"_ZSt10__invoke_rINSt7__cxx1112basic_stringIcSt11char_traitsIcESaIcEEERZN4pbrt13MLTIntegrator6RenderEvE3$_0JEENSt9enable_ifIX16is_invocable_r_vIT_T0_DpT1_EESB_E4typeEOSC_DpOSD_"(ptr sret(%"class.std::__cxx11::basic_string") align 8 %agg.result, ptr noundef nonnull align 1 dereferenceable(1) %call)
  ret void
}