; Function Attrs: mustprogress uwtable
define internal void @"_ZNSt17_Function_handlerIFNSt7__cxx1112basic_stringIcSt11char_traitsIcESaIcEEEvEZN4pbrt13MLTIntegrator6RenderEvE3$_0E9_M_invokeERKSt9_Any_data"(ptr noalias sret(%"class.std::__cxx11::basic_string") align 8 %agg.result, ptr nocapture nonnull readnone align 8 %__functor) #1 align 2 personality ptr @__gxx_personality_v0 {
entry:
  %ref.tmp.i.i.i = alloca %"class.std::__cxx11::basic_string", align 8
  call void @llvm.lifetime.start.p0(i64 32, ptr nonnull %ref.tmp.i.i.i), !noalias !1011
  %0 = tail call align 4 ptr @llvm.threadlocal.address.p0(ptr align 4 @_ZZN4pbrt13MLTIntegrator6RenderEvE11threadDepth)
  %1 = tail call align 8 ptr @llvm.threadlocal.address.p0(ptr align 8 @_ZZN4pbrt13MLTIntegrator6RenderEvE13threadSampler)
  %2 = load ptr, ptr %1, align 8, !noalias !1016
  call void @_ZNK4pbrt10MLTSampler9DumpStateB5cxx11Ev(ptr nonnull sret(%"class.std::__cxx11::basic_string") align 8 %ref.tmp.i.i.i, ptr noundef nonnull align 8 dereferenceable(104) %2), !noalias !1016
  call void @_ZNSt7__cxx1112basic_stringIcSt11char_traitsIcESaIcEEC1Ev(ptr noundef nonnull align 8 dereferenceable(32) %agg.result) #31
  invoke void @_ZN4pbrt6detail21stringPrintfRecursiveIRiJNSt7__cxx1112basic_stringIcSt11char_traitsIcESaIcEEEEEEvPS8_PKcOT_DpOT0_(ptr noundef nonnull %agg.result, ptr noundef nonnull @.str.204, ptr noundef nonnull align 4 dereferenceable(4) %0, ptr noundef nonnull align 8 dereferenceable(32) %ref.tmp.i.i.i)
          to label %"_ZSt10__invoke_rINSt7__cxx1112basic_stringIcSt11char_traitsIcESaIcEEERZN4pbrt13MLTIntegrator6RenderEvE3$_0JEENSt9enable_ifIX16is_invocable_r_vIT_T0_DpT1_EESB_E4typeEOSC_DpOSD_.exit" unwind label %lpad.i.i.i.i

lpad.i.i.i.i:                                     ; preds = %entry
  %3 = landingpad { ptr, i32 }
          cleanup
  call void @_ZNSt7__cxx1112basic_stringIcSt11char_traitsIcESaIcEED1Ev(ptr noundef nonnull align 8 dereferenceable(32) %agg.result) #31
  call void @_ZNSt7__cxx1112basic_stringIcSt11char_traitsIcESaIcEED1Ev(ptr noundef nonnull align 8 dereferenceable(32) %ref.tmp.i.i.i) #31
  resume { ptr, i32 } %3

"_ZSt10__invoke_rINSt7__cxx1112basic_stringIcSt11char_traitsIcESaIcEEERZN4pbrt13MLTIntegrator6RenderEvE3$_0JEENSt9enable_ifIX16is_invocable_r_vIT_T0_DpT1_EESB_E4typeEOSC_DpOSD_.exit": ; preds = %entry
  call void @_ZNSt7__cxx1112basic_stringIcSt11char_traitsIcESaIcEED1Ev(ptr noundef nonnull align 8 dereferenceable(32) %ref.tmp.i.i.i) #31
  call void @llvm.lifetime.end.p0(i64 32, ptr nonnull %ref.tmp.i.i.i), !noalias !1011
  ret void
}